(dp1
S'id'
p2
(dp3
S'length'
p4
I512
sS'unique'
p5
I00
sS'sortable'
p6
I1
sS'sql'
p7
S'INTEGER PRIMARY KEY AUTOINCREMENT'
p8
sS'notnull'
p9
I00
sS'type'
p10
S'id'
p11
ssS'new_hostel'
p12
(dp13
S'sortable'
p14
I2
sS'sql'
p15
S'CHAR(512)'
p16
sS'length'
p17
I512
sS'notnull'
p18
I00
sS'unique'
p19
I00
sS'type'
p20
S'string'
p21
ssS'edit_hostel'
p22
(dp23
g4
I512
sg5
I00
sg6
I2
sg7
S'CHAR(512)'
p24
sg9
I00
sg10
S'string'
p25
ss.