(dp1
S'output'
p2
S'Unable to open included view file: /home/sanket/web2pydoc/web2py/applications/IIIT_courier_portal/views/layout3.html'
p3
sS'layer'
p4
S'ParserContainer'
p5
sS'code'
p6
S'{{extend \'layout3.html\'}}\n<table id="page" bgcolor:=000000>\n    <tr>\n   <td>\n    <figure class="gallery-item">\n        \n        <img src="{{=URL(\'static\',\'images/slider_2.jpg\')}}" alt="new courier" height=300px width=250px>\n           \n        <figcaption class="img-title">\n             <a href="{{=URL(\'manage\')}}">\n            <h4 style="text-align:center;font-color:#000000">List All Couriers</h4>\n                </a>\n            <a href="{{=URL(\'new_courier\')}}">\n            <h4 style="text-align:center">Add New Courier</h4> \n                 </a>\n        </figcaption>\n    </figure></td><td>\n<figure class="gallery-item">\n        \n    <img src="{{=URL(\'static\',\'images/wallet.jpg\')}}" alt="list all courier" height=500px width=250px>\n           \n        <figcaption class="img-title">\n             <a href="{{=URL(\'faq\')}}#a">\n                <h4 style="text-align:center">\n                    About Wallet \n                </h4>\n                </a>\n            <a href="{{=URL(\'cash\')}}">\n            <h4 style="text-align:center">Update Wallet</h4>\n                </a>\n           \n        </figcaption>\n    </figure></td><td>\n<figure class="gallery-item">\n        \n    <img src="{{=URL(\'static\',\'images/faq_small.png\')}}" alt="new courier" height=300px width=250px>\n            \n        <figcaption class="img-title">\n            <a href="{{=URL(\'faq\')}}">\n            <h4 style="text-align:center">\n                FAQ\'s</h4>\n                </a>\n        </figcaption>\n    </figure></td>\n        <td>\n        <figure class="gallery-item">\n        \n            <img src="{{=URL(\'static\',\'images/Edit_user-512.png\')}}" height=100px width=250px>\n            \n        <figcaption class="img-title">\n            <a href="{{=URL(\'profile\')}}">\n            <h4 style="text-align:center">\n                Profile</h4>\n                </a>\n        </figcaption>\n    </figure></td>\n        </tr>\n    </table>\n<marquee>\n    For any queries contact us at courier243@gmail.com\n</marquee>\n\n<script>\n    $(document).ready( function() {\n        $(this).find(\'.img-title\').fadeOut(0);\n\n    $(\'.gallery-item\').hover( function() {\n        $(this).find(\'.img-title\').fadeIn(300);\n    }, function() {\n        $(this).find(\'.img-title\').fadeOut(100);\n    });\n\t\n});\n</script>\n'
p7
sS'snapshot'
p8
(dp9
S'exception'
p10
(dp11
S'__getslice__'
p12
S"<method-wrapper '__getslice__' of exceptions.IOError object>"
p13
sS'__str__'
p14
S"<method-wrapper '__str__' of exceptions.IOError object>"
p15
sS'__reduce__'
p16
S'<built-in method __reduce__ of exceptions.IOError object>'
p17
sS'__dict__'
p18
S'{}'
p19
sS'__sizeof__'
p20
S'<built-in method __sizeof__ of exceptions.IOError object>'
p21
sS'__init__'
p22
S"<method-wrapper '__init__' of exceptions.IOError object>"
p23
sS'__setattr__'
p24
S"<method-wrapper '__setattr__' of exceptions.IOError object>"
p25
sS'__reduce_ex__'
p26
S'<built-in method __reduce_ex__ of exceptions.IOError object>'
p27
sS'__new__'
p28
S'<built-in method __new__ of type object>'
p29
sS'errno'
p30
S'2'
sS'__format__'
p31
S'<built-in method __format__ of exceptions.IOError object>'
p32
sS'__class__'
p33
S"<type 'exceptions.IOError'>"
p34
sS'filename'
p35
S"'/home/sanket/web2pydoc/web2py/applications/IIIT_courier_portal/views/layout3.html'"
p36
sS'__doc__'
p37
S"'I/O operation failed.'"
p38
sS'__getitem__'
p39
S"<method-wrapper '__getitem__' of exceptions.IOError object>"
p40
sS'__setstate__'
p41
S'<built-in method __setstate__ of exceptions.IOError object>'
p42
sS'__getattribute__'
p43
S"<method-wrapper '__getattribute__' of exceptions.IOError object>"
p44
sS'args'
p45
S"(2, 'No such file or directory')"
p46
sS'__subclasshook__'
p47
S'<built-in method __subclasshook__ of type object>'
p48
sS'__unicode__'
p49
S'<built-in method __unicode__ of exceptions.IOError object>'
p50
sS'strerror'
p51
S"'No such file or directory'"
p52
sS'__delattr__'
p53
S"<method-wrapper '__delattr__' of exceptions.IOError object>"
p54
sS'__repr__'
p55
S"<method-wrapper '__repr__' of exceptions.IOError object>"
p56
sS'__hash__'
p57
S"<method-wrapper '__hash__' of exceptions.IOError object>"
p58
ssS'evalue'
p59
S"[Errno 2] No such file or directory: '/home/sanket/web2pydoc/web2py/applications/IIIT_courier_portal/views/layout3.html'"
p60
sS'frames'
p61
(lp62
(dp63
S'file'
p64
S'/home/sanket/web2pydoc/web2py/gluon/template.py'
p65
sS'dump'
p66
(dp67
S'builtinopen'
p68
S'<built-in function open>'
p69
sS'fileobj'
p70
S'undefined'
p71
sS'filepath'
p72
S"'/home/sanket/web2pydoc/web2py/applications/IIIT_courier_portal/views/layout3.html'"
p73
ssS'lnum'
p74
I450
sS'lines'
p75
(dp76
I448
S'        # try to read the text.'
p77
sI449
S'        try:'
p78
sI450
S"            fileobj = open(filepath, 'rb')"
p79
sI451
S'            text = fileobj.read()'
p80
sI452
S'            fileobj.close()'
p81
sI453
S'        except IOError:'
p82
sI454
S"            self._raise_error('Unable to open included view file: ' + filepath)"
p83
sI445
S'        # Get the path of the file on the system.'
p84
sI446
S'        filepath = self.path and os.path.join(self.path, filename) or filename'
p85
sI447
S''
ssS'call'
p86
S"(self=<gluon.template.TemplateParser object>, filename='layout3.html')"
p87
sS'func'
p88
S'_get_file_text'
p89
sasS'pyver'
p90
S'Python 2.7.6: /usr/bin/python (prefix: /usr)'
p91
sS'etype'
p92
S"<type 'exceptions.IOError'>"
p93
sS'date'
p94
S'Sun May  3 02:10:40 2015'
p95
sS'locals'
p96
(dp97
S'self'
p98
S'<gluon.template.TemplateParser object>'
p99
sg35
S"'layout3.html'"
p100
sS'context'
p101
S"{'A': <class 'gluon.html.A'>, 'ANY_OF': <class 'gluon.validators.ANY_OF'>, 'ASSIGNJS': <function ASSIGNJS>, 'Auth': <class 'gluon.tools.Auth'>, 'B': <class 'gluon.html.B'>, 'BEAUTIFY': <class 'gluon.html.BEAUTIFY'>, 'BODY': <class 'gluon.html.BODY'>, 'BR': <class 'gluon.html.BR'>, 'BUTTON': <class 'gluon.html.BUTTON'>, 'CAT': <class 'gluon.html.CAT'>, ...}"
p102
sS'filepath'
p103
S"'/home/sanket/web2pydoc/web2py/applications/IIIT_courier_portal/views/layout3.html'"
p104
sssS'traceback'
p105
S'Traceback (most recent call last):\n  File "/home/sanket/web2pydoc/web2py/gluon/template.py", line 450, in _get_file_text\n    fileobj = open(filepath, \'rb\')\nIOError: [Errno 2] No such file or directory: \'/home/sanket/web2pydoc/web2py/applications/IIIT_courier_portal/views/layout3.html\'\n'
p106
s.