(dp1
S'output'
p2
S"<type 'exceptions.IOError'> [Errno socket error] [Errno 1] _ssl.c:510: error:140770FC:SSL routines:SSL23_GET_SERVER_HELLO:unknown protocol"
p3
sS'layer'
p4
S'/home/sanket/web2pydoc/web2py/applications/IIIT_courier_portal/controllers/default.py'
p5
sS'code'
p6
S'# -*- coding: utf-8 -*-\n# this file is released under public domain and you can use without limitations\n\n#########################################################################\n## This is a sample controller\n## - index is the default action of any application\n## - user is required for authentication and authorization\n## - download is for downloading files uploaded in the db (does streaming)\n## - api is an example of Hypermedia API support and access control\n#########################################################################\n@auth1.requires_login()\ndef index():\n    return locals()\ndef blogger():\n    return locals()\ndef display_form():\n   form=FORM(\'Your name:\', INPUT(_name=\'name\'), INPUT(_type=\'submit\'))\n   return dict(form=form)\ndef login1():\n    if auth1.is_logged_in():\n        redirect(URL(r=request,c=\'default\',f=\'manage\'))\n    from gluon.contrib.login_methods.cas_auth import CasAuth\n    auth1.define_tables(username=True)\n    auth1.settings.login_form=CasAuth(urlbase = "https://login.iiit.ac.in/cas/login",actions=[\'login\',\'validata\',\'logout\'])\n    \n    return auth1.login(next=URL(r=request,c=\'default\',f=\'manage\'))\n@auth.requires_login()\ndef login():\n    redirect(URL(\'manage\'))\n    return locals()\n\n@auth.requires_membership(\'managers\')\ndef new_courier():\n    sn.courier.time_stamp.default=request.now\n    sn.courier.time_stamp.writable=False\n    sn.courier.time_stamp.readable=False\n    form=SQLFORM(sn.courier).process()\n    if form.accepted:\n        session.flash="Entered!"\n        redirect(URL(\'test2\'))\n    return locals()\n\ndef test2():\n    name=sn().select(sn.courier.ALL).as_list()[-1]\n    first=name[\'first_name\']\n    comp=name[\'Courier_Company\']\n    first=first.lower()\n    last=name[\'last_name\']\n    user = db.auth_user\n    r = user.first_name\n    q = r==first\n    s = db(q)\n    comp=str(comp)\n    for row in db(db.auth_user.first_name.lower()==first).select():\n        mail.send(to=[row.email],\n              subject=\'Check\',\n              message=\'Hey! It works. Mail from \'+comp,\n              sender=None)\n    session.flash="An automated email has been sent to "+ first + " " + last + "."\n    redirect(URL(\'manage\'))\n    return \n    \n    \n    return locals()\n@auth.requires_login()\ndef manage():\n    grid=SQLFORM.smartgrid(sn.courier,\n                           editable=auth.has_membership(\'managers\'),\n                           deletable=auth.has_membership(\'none\'),\n                           create=auth.has_membership(\'none\'),\n                           links_in_grid=False,links=None)\n    #rows=sn(sn.courier).select()\n    return locals()\n\ndef user():\n    """\n    exposes:\n    http://..../[app]/default/user/login\n    http://..../[app]/default/user/logout\n    http://..../[app]/default/user/register\n    http://..../[app]/default/user/profile\n    http://..../[app]/default/user/retrieve_password\n    http://..../[app]/default/user/change_password\n    http://..../[app]/default/user/manage_users (requires membership in\n    use @auth.requires_login()\n        @auth.requires_membership(\'group name\')\n        @auth.requires_permission(\'read\',\'table name\',record_id)\n    to decorate functions that need access control\n    """\n    return dict(form=auth())\n\n\n@cache.action()\ndef download():\n    """\n    allows downloading of uploaded files\n    http://..../[app]/default/download/[filename]\n    """\n    return response.download(request, db)\n\n\ndef call():\n    """\n    exposes services. for example:\n    http://..../[app]/default/call/jsonrpc\n    decorate with @services.jsonrpc the functions to expose\n    supports xml, json, xmlrpc, jsonrpc, amfrpc, rss, csv\n    """\n    return service()\n\n\n@auth.requires_login() \ndef api():\n    """\n    this is example of API with access control\n    WEB2PY provides Hypermedia API (Collection+JSON) Experimental\n    """\n    from gluon.contrib.hypermedia import Collection\n    rules = {\n        \'<tablename>\': {\'GET\':{},\'POST\':{},\'PUT\':{},\'DELETE\':{}},\n        }\n    return Collection(db).process(request,response,rules)\n\nresponse._vars=response._caller(login1)\n'
p7
sS'snapshot'
p8
(dp9
S'exception'
p10
(dp11
S'__getslice__'
p12
S"<method-wrapper '__getslice__' of exceptions.IOError object>"
p13
sS'__str__'
p14
S"<method-wrapper '__str__' of exceptions.IOError object>"
p15
sS'__reduce__'
p16
S'<built-in method __reduce__ of exceptions.IOError object>'
p17
sS'__dict__'
p18
S'{}'
p19
sS'__sizeof__'
p20
S'<built-in method __sizeof__ of exceptions.IOError object>'
p21
sS'__init__'
p22
S"<method-wrapper '__init__' of exceptions.IOError object>"
p23
sS'__setattr__'
p24
S"<method-wrapper '__setattr__' of exceptions.IOError object>"
p25
sS'__reduce_ex__'
p26
S'<built-in method __reduce_ex__ of exceptions.IOError object>'
p27
sS'__new__'
p28
S'<built-in method __new__ of type object>'
p29
sS'errno'
p30
S"'socket error'"
p31
sS'__format__'
p32
S'<built-in method __format__ of exceptions.IOError object>'
p33
sS'__class__'
p34
S"<type 'exceptions.IOError'>"
p35
sS'filename'
p36
S'None'
p37
sS'__doc__'
p38
S"'I/O operation failed.'"
p39
sS'__getitem__'
p40
S"<method-wrapper '__getitem__' of exceptions.IOError object>"
p41
sS'__setstate__'
p42
S'<built-in method __setstate__ of exceptions.IOError object>'
p43
sS'__getattribute__'
p44
S"<method-wrapper '__getattribute__' of exceptions.IOError object>"
p45
sS'args'
p46
S"('socket error', SSLError(1, '_ssl.c:510: error:140770FC:SSL routines:SSL23_GET_SERVER_HELLO:unknown protocol'))"
p47
sS'__subclasshook__'
p48
S'<built-in method __subclasshook__ of type object>'
p49
sS'__unicode__'
p50
S'<built-in method __unicode__ of exceptions.IOError object>'
p51
sS'strerror'
p52
S"SSLError(1, '_ssl.c:510: error:140770FC:SSL routines:SSL23_GET_SERVER_HELLO:unknown protocol')"
p53
sS'__delattr__'
p54
S"<method-wrapper '__delattr__' of exceptions.IOError object>"
p55
sS'__repr__'
p56
S"<method-wrapper '__repr__' of exceptions.IOError object>"
p57
sS'__hash__'
p58
S"<method-wrapper '__hash__' of exceptions.IOError object>"
p59
ssS'evalue'
p60
S'[Errno socket error] [Errno 1] _ssl.c:510: error:140770FC:SSL routines:SSL23_GET_SERVER_HELLO:unknown protocol'
p61
sS'request'
p62
cgluon.html
XML_unpickle
p63
(S's\x1en\x00\x00<div><table><tr><td style="font-weight:bold;vertical-align:top;">ajax</td><td style="vertical-align:top;">:</td><td><div>False</div></td></tr><tr><td style="font-weight:bold;vertical-align:top;">application</td><td style="vertical-align:top;">:</td><td><div>IIIT_courier_portal</div></td></tr><tr><td style="font-weight:bold;vertical-align:top;">args</td><td style="vertical-align:top;">:</td><td><div><table></table></div></td></tr><tr><td style="font-weight:bold;vertical-align:top;">cid</td><td style="vertical-align:top;">:</td><td><div>None</div></td></tr><tr><td style="font-weight:bold;vertical-align:top;">client</td><td style="vertical-align:top;">:</td><td><div>127.0.0.1</div></td></tr><tr><td style="font-weight:bold;vertical-align:top;">controller</td><td style="vertical-align:top;">:</td><td><div>default</div></td></tr><tr><td style="font-weight:bold;vertical-align:top;">cookies</td><td style="vertical-align:top;">:</td><td><div><table><tr><td style="font-weight:bold;vertical-align:top;">session_id_admin</td><td style="vertical-align:top;">:</td><td><div>127.0.0.1-07bf6ada-85a7-4607-aae5-345e9ff49399<table><tr><td style="font-weight:bold;vertical-align:top;">comment</td><td style="vertical-align:top;">:</td><td><div></div></td></tr><tr><td style="font-weight:bold;vertical-align:top;">domain</td><td style="vertical-align:top;">:</td><td><div></div></td></tr><tr><td style="font-weight:bold;vertical-align:top;">expires</td><td style="vertical-align:top;">:</td><td><div></div></td></tr><tr><td style="font-weight:bold;vertical-align:top;">httponly</td><td style="vertical-align:top;">:</td><td><div></div></td></tr><tr><td style="font-weight:bold;vertical-align:top;">max-age</td><td style="vertical-align:top;">:</td><td><div></div></td></tr><tr><td style="font-weight:bold;vertical-align:top;">path</td><td style="vertical-align:top;">:</td><td><div></div></td></tr><tr><td style="font-weight:bold;vertical-align:top;">secure</td><td style="vertical-align:top;">:</td><td><div></div></td></tr><tr><td style="font-weight:bold;vertical-align:top;">version</td><td style="vertical-align:top;">:</td><td><div></div></td></tr></table></div></td></tr><tr><td style="font-weight:bold;vertical-align:top;">session_id_app1</td><td style="vertical-align:top;">:</td><td><div>127.0.0.1-c5dd543b-0653-439a-88db-9b20af873431<table><tr><td style="font-weight:bold;vertical-align:top;">comment</td><td style="vertical-align:top;">:</td><td><div></div></td></tr><tr><td style="font-weight:bold;vertical-align:top;">domain</td><td style="vertical-align:top;">:</td><td><div></div></td></tr><tr><td style="font-weight:bold;vertical-align:top;">expires</td><td style="vertical-align:top;">:</td><td><div></div></td></tr><tr><td style="font-weight:bold;vertical-align:top;">httponly</td><td style="vertical-align:top;">:</td><td><div></div></td></tr><tr><td style="font-weight:bold;vertical-align:top;">max-age</td><td style="vertical-align:top;">:</td><td><div></div></td></tr><tr><td style="font-weight:bold;vertical-align:top;">path</td><td style="vertical-align:top;">:</td><td><div></div></td></tr><tr><td style="font-weight:bold;vertical-align:top;">secure</td><td style="vertical-align:top;">:</td><td><div></div></td></tr><tr><td style="font-weight:bold;vertical-align:top;">version</td><td style="vertical-align:top;">:</td><td><div></div></td></tr></table></div></td></tr><tr><td style="font-weight:bold;vertical-align:top;">session_id_iiit_courier_portal</td><td style="vertical-align:top;">:</td><td><div>127.0.0.1-3e5e3aa6-3416-4a7e-a80d-a37ebf8e91d4<table><tr><td style="font-weight:bold;vertical-align:top;">comment</td><td style="vertical-align:top;">:</td><td><div></div></td></tr><tr><td style="font-weight:bold;vertical-align:top;">domain</td><td style="vertical-align:top;">:</td><td><div></div></td></tr><tr><td style="font-weight:bold;vertical-align:top;">expires</td><td style="vertical-align:top;">:</td><td><div></div></td></tr><tr><td style="font-weight:bold;vertical-align:top;">httponly</td><td style="vertical-align:top;">:</td><td><div></div></td></tr><tr><td style="font-weight:bold;vertical-align:top;">max-age</td><td style="vertical-align:top;">:</td><td><div></div></td></tr><tr><td style="font-weight:bold;vertical-align:top;">path</td><td style="vertical-align:top;">:</td><td><div></div></td></tr><tr><td style="font-weight:bold;vertical-align:top;">secure</td><td style="vertical-align:top;">:</td><td><div></div></td></tr><tr><td style="font-weight:bold;vertical-align:top;">version</td><td style="vertical-align:top;">:</td><td><div></div></td></tr></table></div></td></tr><tr><td style="font-weight:bold;vertical-align:top;">session_id_myapp</td><td style="vertical-align:top;">:</td><td><div>127.0.0.1-5c89724b-591c-49f4-b111-4e1b7ce3ae1b<table><tr><td style="font-weight:bold;vertical-align:top;">comment</td><td style="vertical-align:top;">:</td><td><div></div></td></tr><tr><td style="font-weight:bold;vertical-align:top;">domain</td><td style="vertical-align:top;">:</td><td><div></div></td></tr><tr><td style="font-weight:bold;vertical-align:top;">expires</td><td style="vertical-align:top;">:</td><td><div></div></td></tr><tr><td style="font-weight:bold;vertical-align:top;">httponly</td><td style="vertical-align:top;">:</td><td><div></div></td></tr><tr><td style="font-weight:bold;vertical-align:top;">max-age</td><td style="vertical-align:top;">:</td><td><div></div></td></tr><tr><td style="font-weight:bold;vertical-align:top;">path</td><td style="vertical-align:top;">:</td><td><div></div></td></tr><tr><td style="font-weight:bold;vertical-align:top;">secure</td><td style="vertical-align:top;">:</td><td><div></div></td></tr><tr><td style="font-weight:bold;vertical-align:top;">version</td><td style="vertical-align:top;">:</td><td><div></div></td></tr></table></div></td></tr><tr><td style="font-weight:bold;vertical-align:top;">session_id_sanket</td><td style="vertical-align:top;">:</td><td><div>127.0.0.1-41a17223-fd62-4f7a-94fb-c64e5c6070af<table><tr><td style="font-weight:bold;vertical-align:top;">comment</td><td style="vertical-align:top;">:</td><td><div></div></td></tr><tr><td style="font-weight:bold;vertical-align:top;">domain</td><td style="vertical-align:top;">:</td><td><div></div></td></tr><tr><td style="font-weight:bold;vertical-align:top;">expires</td><td style="vertical-align:top;">:</td><td><div></div></td></tr><tr><td style="font-weight:bold;vertical-align:top;">httponly</td><td style="vertical-align:top;">:</td><td><div></div></td></tr><tr><td style="font-weight:bold;vertical-align:top;">max-age</td><td style="vertical-align:top;">:</td><td><div></div></td></tr><tr><td style="font-weight:bold;vertical-align:top;">path</td><td style="vertical-align:top;">:</td><td><div></div></td></tr><tr><td style="font-weight:bold;vertical-align:top;">secure</td><td style="vertical-align:top;">:</td><td><div></div></td></tr><tr><td style="font-weight:bold;vertical-align:top;">version</td><td style="vertical-align:top;">:</td><td><div></div></td></tr></table></div></td></tr><tr><td style="font-weight:bold;vertical-align:top;">session_id_welcome</td><td style="vertical-align:top;">:</td><td><div>127.0.0.1-1da12d9d-c2e4-4ade-9a85-2a6e1c267a46<table><tr><td style="font-weight:bold;vertical-align:top;">comment</td><td style="vertical-align:top;">:</td><td><div></div></td></tr><tr><td style="font-weight:bold;vertical-align:top;">domain</td><td style="vertical-align:top;">:</td><td><div></div></td></tr><tr><td style="font-weight:bold;vertical-align:top;">expires</td><td style="vertical-align:top;">:</td><td><div></div></td></tr><tr><td style="font-weight:bold;vertical-align:top;">httponly</td><td style="vertical-align:top;">:</td><td><div></div></td></tr><tr><td style="font-weight:bold;vertical-align:top;">max-age</td><td style="vertical-align:top;">:</td><td><div></div></td></tr><tr><td style="font-weight:bold;vertical-align:top;">path</td><td style="vertical-align:top;">:</td><td><div></div></td></tr><tr><td style="font-weight:bold;vertical-align:top;">secure</td><td style="vertical-align:top;">:</td><td><div></div></td></tr><tr><td style="font-weight:bold;vertical-align:top;">version</td><td style="vertical-align:top;">:</td><td><div></div></td></tr></table></div></td></tr></table></div></td></tr><tr><td style="font-weight:bold;vertical-align:top;">env</td><td style="vertical-align:top;">:</td><td><div><table><tr><td style="font-weight:bold;vertical-align:top;">HTTP_ACCEPT</td><td style="vertical-align:top;">:</td><td><div>text/html,application/xhtml+xml,application/xml;q=0.9,*/*;q=0.8</div></td></tr><tr><td style="font-weight:bold;vertical-align:top;">HTTP_ACCEPT_ENCODING</td><td style="vertical-align:top;">:</td><td><div>gzip, deflate</div></td></tr><tr><td style="font-weight:bold;vertical-align:top;">HTTP_ACCEPT_LANGUAGE</td><td style="vertical-align:top;">:</td><td><div>en-US,en;q=0.5</div></td></tr><tr><td style="font-weight:bold;vertical-align:top;">HTTP_CONNECTION</td><td style="vertical-align:top;">:</td><td><div>keep-alive</div></td></tr><tr><td style="font-weight:bold;vertical-align:top;">HTTP_COOKIE</td><td style="vertical-align:top;">:</td><td><div>session_id_welcome=127.0.0.1-1da12d9d-c2e4-4ade-9a85-2a6e1c267a46; session_id_admin=127.0.0.1-07bf6ada-85a7-4607-aae5-345e9ff49399; session_id_iiit_courier_portal=127.0.0.1-3e5e3aa6-3416-4a7e-a80d-a37ebf8e91d4; session_id_myapp=127.0.0.1-5c89724b-591c-49f4-b111-4e1b7ce3ae1b; session_id_app1=127.0.0.1-c5dd543b-0653-439a-88db-9b20af873431; session_id_sanket=127.0.0.1-41a17223-fd62-4f7a-94fb-c64e5c6070af</div></td></tr><tr><td style="font-weight:bold;vertical-align:top;">HTTP_HOST</td><td style="vertical-align:top;">:</td><td><div>127.0.0.1:8000</div></td></tr><tr><td style="font-weight:bold;vertical-align:top;">HTTP_REFERER</td><td style="vertical-align:top;">:</td><td><div>http://127.0.0.1:8000/IIIT_courier_portal/default/user/login?_next=/IIIT_courier_portal/default/login</div></td></tr><tr><td style="font-weight:bold;vertical-align:top;">HTTP_USER_AGENT</td><td style="vertical-align:top;">:</td><td><div>Mozilla/5.0 (X11; Ubuntu; Linux x86_64; rv:37.0) Gecko/20100101 Firefox/37.0</div></td></tr><tr><td style="font-weight:bold;vertical-align:top;">PATH_INFO</td><td style="vertical-align:top;">:</td><td><div>/IIIT_courier_portal/default/login1</div></td></tr><tr><td style="font-weight:bold;vertical-align:top;">QUERY_STRING</td><td style="vertical-align:top;">:</td><td><div>ticket=ST-6636-dgtfEbBz53awcObnbKRS-cas</div></td></tr><tr><td style="font-weight:bold;vertical-align:top;">REMOTE_ADDR</td><td style="vertical-align:top;">:</td><td><div>127.0.0.1</div></td></tr><tr><td style="font-weight:bold;vertical-align:top;">REMOTE_PORT</td><td style="vertical-align:top;">:</td><td><div>39570</div></td></tr><tr><td style="font-weight:bold;vertical-align:top;">REQUEST_METHOD</td><td style="vertical-align:top;">:</td><td><div>GET</div></td></tr><tr><td style="font-weight:bold;vertical-align:top;">SCRIPT_NAME</td><td style="vertical-align:top;">:</td><td><div></div></td></tr><tr><td style="font-weight:bold;vertical-align:top;">SERVER_NAME</td><td style="vertical-align:top;">:</td><td><div>sanket-Aspire-5532</div></td></tr><tr><td style="font-weight:bold;vertical-align:top;">SERVER_PORT</td><td style="vertical-align:top;">:</td><td><div>8000</div></td></tr><tr><td style="font-weight:bold;vertical-align:top;">SERVER_PROTOCOL</td><td style="vertical-align:top;">:</td><td><div>HTTP/1.1</div></td></tr><tr><td style="font-weight:bold;vertical-align:top;">SERVER_SOFTWARE</td><td style="vertical-align:top;">:</td><td><div>Rocket 1.2.6</div></td></tr><tr><td style="font-weight:bold;vertical-align:top;">app_folders</td><td style="vertical-align:top;">:</td><td><div>set([&#x27;/home/sanket/web2pydoc/web2py/applications/IIIT_courier_portal/&#x27;, &#x27;/home/sanket/web2pydoc/web2py/applications/admin/&#x27;, &#x27;/home/sanket/web2pydoc/web2py/applications/app1/&#x27;, &#x27;/home/sanket/web2pydoc/web2py/applications/welcome/&#x27;, &#x27;/home/sanket/web2pydoc/web2py/applications/sanket/&#x27;, &#x27;/home/sanket/web2pydoc/web2py/applications/myapp/&#x27;])</div></td></tr><tr><td style="font-weight:bold;vertical-align:top;">applications_parent</td><td style="vertical-align:top;">:</td><td><div>/home/sanket/web2pydoc/web2py</div></td></tr><tr><td style="font-weight:bold;vertical-align:top;">cmd_args</td><td style="vertical-align:top;">:</td><td><div><table></table></div></td></tr><tr><td style="font-weight:bold;vertical-align:top;">cmd_options</td><td style="vertical-align:top;">:</td><td><div>&lt;Values at 0x7fbbbaab7b48: {&#x27;verbose&#x27;: False, &#x27;ip&#x27;: &#x27;127.0.0.1&#x27;, &#x27;debuglevel&#x27;: 30, &#x27;with_scheduler&#x27;: False, &#x27;ips&#x27;: [&#x27;127.0.1.1&#x27;], &#x27;shutdown_timeout&#x27;: 5, &#x27;taskbar&#x27;: False, &#x27;with_coverage&#x27;: False, &#x27;scheduler_groups&#x27;: None, &#x27;port&#x27;: 8000, &#x27;maxthreads&#x27;: None, &#x27;softcron&#x27;: False, &#x27;server_name&#x27;: &#x27;sanket-Aspire-5532&#x27;, &#x27;bpython&#x27;: False, &#x27;nogui&#x27;: False, &#x27;pid_filename&#x27;: &#x27;httpserver.pid&#x27;, &#x27;extcron&#x27;: False, &#x27;runcron&#x27;: False, &#x27;run_system_tests&#x27;: False, &#x27;test&#x27;: None, &#x27;folder&#x27;: &#x27;/home/sanket/web2pydoc/web2py&#x27;, &#x27;config&#x27;: &#x27;&#x27;, &#x27;minthreads&#x27;: None, &#x27;shell&#x27;: None, &#x27;run&#x27;: &#x27;&#x27;, &#x27;log_filename&#x27;: &#x27;httpserver.log&#x27;, &#x27;profiler_dir&#x27;: None, &#x27;args&#x27;: [&#x27;&#x27;], &#x27;socket_timeout&#x27;: 5, &#x27;ssl_ca_certificate&#x27;: None, &#x27;scheduler&#x27;: None, &#x27;interfaces&#x27;: None, &#x27;ssl_private_key&#x27;: &#x27;&#x27;, &#x27;gae&#x27;: None, &#x27;password&#x27;: &#x27;&lt;ask&gt;&#x27;, &#x27;request_queue_size&#x27;: 5, &#x27;ssl_certificate&#x27;: &#x27;&#x27;, &#x27;cronjob&#x27;: False, &#x27;numthreads&#x27;: None, &#x27;quiet&#x27;: False, &#x27;import_models&#x27;: False, &#x27;timeout&#x27;: 10, &#x27;plain&#x27;: False, &#x27;nobanner&#x27;: False}&gt;</div></td></tr><tr><td style="font-weight:bold;vertical-align:top;">db_sessions</td><td style="vertical-align:top;">:</td><td><div>set([])</div></td></tr><tr><td style="font-weight:bold;vertical-align:top;">debugging</td><td style="vertical-align:top;">:</td><td><div>True</div></td></tr><tr><td style="font-weight:bold;vertical-align:top;">gluon_parent</td><td style="vertical-align:top;">:</td><td><div>/home/sanket/web2pydoc/web2py</div></td></tr><tr><td style="font-weight:bold;vertical-align:top;">http_accept</td><td style="vertical-align:top;">:</td><td><div>text/html,application/xhtml+xml,application/xml;q=0.9,*/*;q=0.8</div></td></tr><tr><td style="font-weight:bold;vertical-align:top;">http_accept_encoding</td><td style="vertical-align:top;">:</td><td><div>gzip, deflate</div></td></tr><tr><td style="font-weight:bold;vertical-align:top;">http_accept_language</td><td style="vertical-align:top;">:</td><td><div>en-US,en;q=0.5</div></td></tr><tr><td style="font-weight:bold;vertical-align:top;">http_connection</td><td style="vertical-align:top;">:</td><td><div>keep-alive</div></td></tr><tr><td style="font-weight:bold;vertical-align:top;">http_cookie</td><td style="vertical-align:top;">:</td><td><div>session_id_welcome=127.0.0.1-1da12d9d-c2e4-4ade-9a85-2a6e1c267a46; session_id_admin=127.0.0.1-07bf6ada-85a7-4607-aae5-345e9ff49399; session_id_iiit_courier_portal=127.0.0.1-3e5e3aa6-3416-4a7e-a80d-a37ebf8e91d4; session_id_myapp=127.0.0.1-5c89724b-591c-49f4-b111-4e1b7ce3ae1b; session_id_app1=127.0.0.1-c5dd543b-0653-439a-88db-9b20af873431; session_id_sanket=127.0.0.1-41a17223-fd62-4f7a-94fb-c64e5c6070af</div></td></tr><tr><td style="font-weight:bold;vertical-align:top;">http_host</td><td style="vertical-align:top;">:</td><td><div>127.0.0.1:8000</div></td></tr><tr><td style="font-weight:bold;vertical-align:top;">http_referer</td><td style="vertical-align:top;">:</td><td><div>http://127.0.0.1:8000/IIIT_courier_portal/default/user/login?_next=/IIIT_courier_portal/default/login</div></td></tr><tr><td style="font-weight:bold;vertical-align:top;">http_user_agent</td><td style="vertical-align:top;">:</td><td><div>Mozilla/5.0 (X11; Ubuntu; Linux x86_64; rv:37.0) Gecko/20100101 Firefox/37.0</div></td></tr><tr><td style="font-weight:bold;vertical-align:top;">is_jython</td><td style="vertical-align:top;">:</td><td><div>False</div></td></tr><tr><td style="font-weight:bold;vertical-align:top;">is_pypy</td><td style="vertical-align:top;">:</td><td><div>False</div></td></tr><tr><td style="font-weight:bold;vertical-align:top;">is_source</td><td style="vertical-align:top;">:</td><td><div>True</div></td></tr><tr><td style="font-weight:bold;vertical-align:top;">local_hosts</td><td style="vertical-align:top;">:</td><td><div><table><tr><td><div>::1</div></td></tr><tr><td><div>127.0.1.1</div></td></tr><tr><td><div>::ffff:127.0.0.1</div></td></tr><tr><td><div>127.0.0.1</div></td></tr><tr><td><div>sanket-Aspire-5532</div></td></tr></table></div></td></tr><tr><td style="font-weight:bold;vertical-align:top;">path_info</td><td style="vertical-align:top;">:</td><td><div>/IIIT_courier_portal/default/login1</div></td></tr><tr><td style="font-weight:bold;vertical-align:top;">query_string</td><td style="vertical-align:top;">:</td><td><div>ticket=ST-6636-dgtfEbBz53awcObnbKRS-cas</div></td></tr><tr><td style="font-weight:bold;vertical-align:top;">remote_addr</td><td style="vertical-align:top;">:</td><td><div>127.0.0.1</div></td></tr><tr><td style="font-weight:bold;vertical-align:top;">remote_port</td><td style="vertical-align:top;">:</td><td><div>39570</div></td></tr><tr><td style="font-weight:bold;vertical-align:top;">request_method</td><td style="vertical-align:top;">:</td><td><div>GET</div></td></tr><tr><td style="font-weight:bold;vertical-align:top;">request_uri</td><td style="vertical-align:top;">:</td><td><div>/IIIT_courier_portal/default/login1?ticket=ST-6636-dgtfEbBz53awcObnbKRS-cas</div></td></tr><tr><td style="font-weight:bold;vertical-align:top;">script_name</td><td style="vertical-align:top;">:</td><td><div></div></td></tr><tr><td style="font-weight:bold;vertical-align:top;">server_name</td><td style="vertical-align:top;">:</td><td><div>sanket-Aspire-5532</div></td></tr><tr><td style="font-weight:bold;vertical-align:top;">server_port</td><td style="vertical-align:top;">:</td><td><div>8000</div></td></tr><tr><td style="font-weight:bold;vertical-align:top;">server_protocol</td><td style="vertical-align:top;">:</td><td><div>HTTP/1.1</div></td></tr><tr><td style="font-weight:bold;vertical-align:top;">server_software</td><td style="vertical-align:top;">:</td><td><div>Rocket 1.2.6</div></td></tr><tr><td style="font-weight:bold;vertical-align:top;">web2py_path</td><td style="vertical-align:top;">:</td><td><div>/home/sanket/web2pydoc/web2py</div></td></tr><tr><td style="font-weight:bold;vertical-align:top;">web2py_version</td><td style="vertical-align:top;">:</td><td><div>2.9.12-stable+timestamp.2015.01.17.06.11.03</div></td></tr><tr><td style="font-weight:bold;vertical-align:top;">wsgi.errors</td><td style="vertical-align:top;">:</td><td><div>&lt;open file &#x27;&lt;stderr&gt;&#x27;, mode &#x27;w&#x27; at 0x7fbbbe30a1e0&gt;</div></td></tr><tr><td style="font-weight:bold;vertical-align:top;">wsgi.file_wrapper</td><td style="vertical-align:top;">:</td><td><div>&lt;class wsgiref.util.FileWrapper at 0x7fbbb8f049a8&gt;</div></td></tr><tr><td style="font-weight:bold;vertical-align:top;">wsgi.input</td><td style="vertical-align:top;">:</td><td><div>&lt;socket._fileobject object at 0x7fbb8b0e2a50&gt;</div></td></tr><tr><td style="font-weight:bold;vertical-align:top;">wsgi.multiprocess</td><td style="vertical-align:top;">:</td><td><div>False</div></td></tr><tr><td style="font-weight:bold;vertical-align:top;">wsgi.multithread</td><td style="vertical-align:top;">:</td><td><div>True</div></td></tr><tr><td style="font-weight:bold;vertical-align:top;">wsgi.run_once</td><td style="vertical-align:top;">:</td><td><div>False</div></td></tr><tr><td style="font-weight:bold;vertical-align:top;">wsgi.url_scheme</td><td style="vertical-align:top;">:</td><td><div>http</div></td></tr><tr><td style="font-weight:bold;vertical-align:top;">wsgi.version</td><td style="vertical-align:top;">:</td><td><div><table><tr><td><div>1</div></td></tr><tr><td><div>0</div></td></tr></table></div></td></tr><tr><td style="font-weight:bold;vertical-align:top;">wsgi_errors</td><td style="vertical-align:top;">:</td><td><div>&lt;open file &#x27;&lt;stderr&gt;&#x27;, mode &#x27;w&#x27; at 0x7fbbbe30a1e0&gt;</div></td></tr><tr><td style="font-weight:bold;vertical-align:top;">wsgi_file_wrapper</td><td style="vertical-align:top;">:</td><td><div>&lt;class wsgiref.util.FileWrapper at 0x7fbbb8f049a8&gt;</div></td></tr><tr><td style="font-weight:bold;vertical-align:top;">wsgi_input</td><td style="vertical-align:top;">:</td><td><div>&lt;socket._fileobject object at 0x7fbb8b0e2a50&gt;</div></td></tr><tr><td style="font-weight:bold;vertical-align:top;">wsgi_multiprocess</td><td style="vertical-align:top;">:</td><td><div>False</div></td></tr><tr><td style="font-weight:bold;vertical-align:top;">wsgi_multithread</td><td style="vertical-align:top;">:</td><td><div>True</div></td></tr><tr><td style="font-weight:bold;vertical-align:top;">wsgi_run_once</td><td style="vertical-align:top;">:</td><td><div>False</div></td></tr><tr><td style="font-weight:bold;vertical-align:top;">wsgi_url_scheme</td><td style="vertical-align:top;">:</td><td><div>http</div></td></tr><tr><td style="font-weight:bold;vertical-align:top;">wsgi_version</td><td style="vertical-align:top;">:</td><td><div><table><tr><td><div>1</div></td></tr><tr><td><div>0</div></td></tr></table></div></td></tr></table></div></td></tr><tr><td style="font-weight:bold;vertical-align:top;">extension</td><td style="vertical-align:top;">:</td><td><div>html</div></td></tr><tr><td style="font-weight:bold;vertical-align:top;">folder</td><td style="vertical-align:top;">:</td><td><div>/home/sanket/web2pydoc/web2py/applications/IIIT_courier_portal/</div></td></tr><tr><td style="font-weight:bold;vertical-align:top;">function</td><td style="vertical-align:top;">:</td><td><div>login1</div></td></tr><tr><td style="font-weight:bold;vertical-align:top;">global_settings</td><td style="vertical-align:top;">:</td><td><div><table><tr><td style="font-weight:bold;vertical-align:top;">app_folders</td><td style="vertical-align:top;">:</td><td><div>set([&#x27;/home/sanket/web2pydoc/web2py/applications/IIIT_courier_portal/&#x27;, &#x27;/home/sanket/web2pydoc/web2py/applications/admin/&#x27;, &#x27;/home/sanket/web2pydoc/web2py/applications/app1/&#x27;, &#x27;/home/sanket/web2pydoc/web2py/applications/welcome/&#x27;, &#x27;/home/sanket/web2pydoc/web2py/applications/sanket/&#x27;, &#x27;/home/sanket/web2pydoc/web2py/applications/myapp/&#x27;])</div></td></tr><tr><td style="font-weight:bold;vertical-align:top;">applications_parent</td><td style="vertical-align:top;">:</td><td><div>/home/sanket/web2pydoc/web2py</div></td></tr><tr><td style="font-weight:bold;vertical-align:top;">cmd_args</td><td style="vertical-align:top;">:</td><td><div><table></table></div></td></tr><tr><td style="font-weight:bold;vertical-align:top;">cmd_options</td><td style="vertical-align:top;">:</td><td><div>&lt;Values at 0x7fbbbaab7b48: {&#x27;verbose&#x27;: False, &#x27;ip&#x27;: &#x27;127.0.0.1&#x27;, &#x27;debuglevel&#x27;: 30, &#x27;with_scheduler&#x27;: False, &#x27;ips&#x27;: [&#x27;127.0.1.1&#x27;], &#x27;shutdown_timeout&#x27;: 5, &#x27;taskbar&#x27;: False, &#x27;with_coverage&#x27;: False, &#x27;scheduler_groups&#x27;: None, &#x27;port&#x27;: 8000, &#x27;maxthreads&#x27;: None, &#x27;softcron&#x27;: False, &#x27;server_name&#x27;: &#x27;sanket-Aspire-5532&#x27;, &#x27;bpython&#x27;: False, &#x27;nogui&#x27;: False, &#x27;pid_filename&#x27;: &#x27;httpserver.pid&#x27;, &#x27;extcron&#x27;: False, &#x27;runcron&#x27;: False, &#x27;run_system_tests&#x27;: False, &#x27;test&#x27;: None, &#x27;folder&#x27;: &#x27;/home/sanket/web2pydoc/web2py&#x27;, &#x27;config&#x27;: &#x27;&#x27;, &#x27;minthreads&#x27;: None, &#x27;shell&#x27;: None, &#x27;run&#x27;: &#x27;&#x27;, &#x27;log_filename&#x27;: &#x27;httpserver.log&#x27;, &#x27;profiler_dir&#x27;: None, &#x27;args&#x27;: [&#x27;&#x27;], &#x27;socket_timeout&#x27;: 5, &#x27;ssl_ca_certificate&#x27;: None, &#x27;scheduler&#x27;: None, &#x27;interfaces&#x27;: None, &#x27;ssl_private_key&#x27;: &#x27;&#x27;, &#x27;gae&#x27;: None, &#x27;password&#x27;: &#x27;&lt;ask&gt;&#x27;, &#x27;request_queue_size&#x27;: 5, &#x27;ssl_certificate&#x27;: &#x27;&#x27;, &#x27;cronjob&#x27;: False, &#x27;numthreads&#x27;: None, &#x27;quiet&#x27;: False, &#x27;import_models&#x27;: False, &#x27;timeout&#x27;: 10, &#x27;plain&#x27;: False, &#x27;nobanner&#x27;: False}&gt;</div></td></tr><tr><td style="font-weight:bold;vertical-align:top;">db_sessions</td><td style="vertical-align:top;">:</td><td><div>set([])</div></td></tr><tr><td style="font-weight:bold;vertical-align:top;">debugging</td><td style="vertical-align:top;">:</td><td><div>True</div></td></tr><tr><td style="font-weight:bold;vertical-align:top;">gluon_parent</td><td style="vertical-align:top;">:</td><td><div>/home/sanket/web2pydoc/web2py</div></td></tr><tr><td style="font-weight:bold;vertical-align:top;">is_jython</td><td style="vertical-align:top;">:</td><td><div>False</div></td></tr><tr><td style="font-weight:bold;vertical-align:top;">is_pypy</td><td style="vertical-align:top;">:</td><td><div>False</div></td></tr><tr><td style="font-weight:bold;vertical-align:top;">is_source</td><td style="vertical-align:top;">:</td><td><div>True</div></td></tr><tr><td style="font-weight:bold;vertical-align:top;">local_hosts</td><td style="vertical-align:top;">:</td><td><div><table><tr><td><div>::1</div></td></tr><tr><td><div>127.0.1.1</div></td></tr><tr><td><div>::ffff:127.0.0.1</div></td></tr><tr><td><div>127.0.0.1</div></td></tr><tr><td><div>sanket-Aspire-5532</div></td></tr></table></div></td></tr><tr><td style="font-weight:bold;vertical-align:top;">web2py_version</td><td style="vertical-align:top;">:</td><td><div>2.9.12-stable+timestamp.2015.01.17.06.11.03</div></td></tr></table></div></td></tr><tr><td style="font-weight:bold;vertical-align:top;">is_https</td><td style="vertical-align:top;">:</td><td><div>False</div></td></tr><tr><td style="font-weight:bold;vertical-align:top;">is_local</td><td style="vertical-align:top;">:</td><td><div>True</div></td></tr><tr><td style="font-weight:bold;vertical-align:top;">is_restful</td><td style="vertical-align:top;">:</td><td><div>False</div></td></tr><tr><td style="font-weight:bold;vertical-align:top;">is_sheduler</td><td style="vertical-align:top;">:</td><td><div>None</div></td></tr><tr><td style="font-weight:bold;vertical-align:top;">is_shell</td><td style="vertical-align:top;">:</td><td><div>None</div></td></tr><tr><td style="font-weight:bold;vertical-align:top;">now</td><td style="vertical-align:top;">:</td><td><div>datetime.datetime(2015, 4, 30, 21, 48, 53, 505928)</div></td></tr><tr><td style="font-weight:bold;vertical-align:top;">raw_args</td><td style="vertical-align:top;">:</td><td><div></div></td></tr><tr><td style="font-weight:bold;vertical-align:top;">raw_extension</td><td style="vertical-align:top;">:</td><td><div>None</div></td></tr><tr><td style="font-weight:bold;vertical-align:top;">url</td><td style="vertical-align:top;">:</td><td><div>/IIIT_courier_portal/default/login1</div></td></tr><tr><td style="font-weight:bold;vertical-align:top;">utcnow</td><td style="vertical-align:top;">:</td><td><div>datetime.datetime(2015, 4, 30, 16, 18, 53, 506013)</div></td></tr><tr><td style="font-weight:bold;vertical-align:top;">uuid</td><td style="vertical-align:top;">:</td><td><div>IIIT_courier_portal/127.0.0.1.2015-04-30.21-48-53.08a1efaf-cb05-4d28-91d2-ad2b7bbf92b5</div></td></tr><tr><td style="font-weight:bold;vertical-align:top;">wsgi</td><td style="vertical-align:top;">:</td><td><div>&lt;gluon.main.LazyWSGI object at 0x7fbb90355710&gt;</div></td></tr></table></div>'
tRp64
sS'frames'
p65
(lp66
(dp67
S'file'
p68
S'/home/sanket/web2pydoc/web2py/gluon/restricted.py'
p69
sS'dump'
p70
(dp71
S'environment'
p72
S"{'A': <class 'gluon.html.A'>, 'ANY_OF': <class 'gluon.validators.ANY_OF'>, 'ASSIGNJS': <function ASSIGNJS>, 'Auth': <class 'gluon.tools.Auth'>, 'B': <class 'gluon.html.B'>, 'BEAUTIFY': <class 'gluon.html.BEAUTIFY'>, 'BODY': <class 'gluon.html.BODY'>, 'BR': <class 'gluon.html.BR'>, 'BUTTON': <class 'gluon.html.BUTTON'>, 'CAT': <class 'gluon.html.CAT'>, ...}"
p73
sS'ccode'
p74
S'<code object <module> at 0x7fbb8b9c2a30, file "/..._courier_portal/controllers/default.py", line 11>'
p75
ssS'lnum'
p76
I224
sS'lines'
p77
(dp78
I224
S'        exec ccode in environment'
p79
sI225
S'    except HTTP:'
p80
sI226
S'        raise'
p81
sI227
S'    except RestrictedError:'
p82
sI228
S'        # do not encapsulate (obfuscate) the original RestrictedError'
p83
sI219
S'    try:'
p84
sI220
S'        if isinstance(code, types.CodeType):'
p85
sI221
S'            ccode = code'
p86
sI222
S'        else:'
p87
sI223
S'            ccode = compile2(code, layer)'
p88
ssS'call'
p89
S"(code='# -*- coding: utf-8 -*-\\n# this file is released ...,rules)\\n\\nresponse._vars=response._caller(login1)\\n', environment={'A': <class 'gluon.html.A'>, 'ANY_OF': <class 'gluon.validators.ANY_OF'>, 'ASSIGNJS': <function ASSIGNJS>, 'Auth': <class 'gluon.tools.Auth'>, 'B': <class 'gluon.html.B'>, 'BEAUTIFY': <class 'gluon.html.BEAUTIFY'>, 'BODY': <class 'gluon.html.BODY'>, 'BR': <class 'gluon.html.BR'>, 'BUTTON': <class 'gluon.html.BUTTON'>, 'CAT': <class 'gluon.html.CAT'>, ...}, layer='/home/sanket/web2pydoc/web2py/applications/IIIT_courier_portal/controllers/default.py')"
p90
sS'func'
p91
S'restricted'
p92
sa(dp93
g68
S'/home/sanket/web2pydoc/web2py/applications/IIIT_courier_portal/controllers/default.py'
p94
sg70
(dp95
sg76
I124
sg77
(dp96
I113
S'def api():'
p97
sI114
S'    """'
p98
sI115
S'    this is example of API with access control'
p99
sI116
S'    WEB2PY provides Hypermedia API (Collection+JSON) Experimental'
p100
sI117
S'    """'
p101
sI118
S'    from gluon.contrib.hypermedia import Collection'
p102
sI119
S'    rules = {'
p103
sI120
S"        '<tablename>': {'GET':{},'POST':{},'PUT':{},'DELETE':{}},"
p104
sI121
S'        }'
p105
sI122
S'    return Collection(db).process(request,response,rules)'
p106
ssg89
S'()'
p107
sg91
S'<module>'
p108
sa(dp109
g68
S'/home/sanket/web2pydoc/web2py/gluon/globals.py'
p110
sg70
(dp111
S'self'
p112
S'undefined'
p113
sS'f'
S'<function login1>'
p114
ssg76
I393
sg77
(dp115
I388
S"        self.flash = ''            # used by the default view layout"
p116
sI389
S'        self.meta = Storage()      # used by web2py_ajax.html'
p117
sI390
S'        self.menu = []             # used by the default view layout'
p118
sI391
S'        self.files = []            # used by web2py_ajax.html'
p119
sI392
S'        self._vars = None'
p120
sI393
S'        self._caller = lambda f: f()'
p121
sI394
S'        self._view_environment = None'
p122
sI395
S'        self._custom_commit = None'
p123
sI396
S'        self._custom_rollback = None'
p124
sI397
S"        self.generic_patterns = ['*']"
p125
ssg89
S'(f=<function login1>)'
p126
sg91
S'<lambda>'
p127
sa(dp128
g68
S'/home/sanket/web2pydoc/web2py/applications/IIIT_courier_portal/controllers/default.py'
p129
sg70
(dp130
S'c'
g113
sS'builtinnext'
p131
S'<built-in function next>'
p132
sS'global request'
p133
S"<Storage {'_vars': <Storage {'ticket': 'ST-6636-...pydoc/web2py/applications/IIIT_courier_portal/'}>"
p134
sS'f'
g113
sS'global URL'
p135
S'<function URL>'
p136
sS'auth1.login'
p137
S'<bound method Auth.login of <gluon.tools.Auth object>>'
p138
sS'global auth1'
p139
S'<gluon.tools.Auth object>'
p140
sS'r'
g113
ssg76
I26
sg77
(dp141
I21
S"        redirect(URL(r=request,c='default',f='manage'))"
p142
sI22
S'    from gluon.contrib.login_methods.cas_auth import CasAuth'
p143
sI23
S'    auth1.define_tables(username=True)'
p144
sI24
S'    auth1.settings.login_form=CasAuth(urlbase = "https://login.iiit.ac.in/cas/login",actions=[\'login\',\'validata\',\'logout\'])'
p145
sI25
S''
sI26
S"    return auth1.login(next=URL(r=request,c='default',f='manage'))"
p146
sI27
S'@auth.requires_login()'
p147
sI28
S'def login():'
p148
sI29
S"    redirect(URL('manage'))"
p149
sI30
S'    return locals()'
p150
ssg89
S'()'
p151
sg91
S'login1'
p152
sa(dp153
g68
S'/home/sanket/web2pydoc/web2py/gluon/tools.py'
p154
sg70
(dp155
S'settings.client_side'
p156
S'True'
p157
sS'cas.login_url'
p158
S'<bound method CasAuth.login_url of <gluon.contrib.login_methods.cas_auth.CasAuth object>>'
p159
sS'settings'
p160
S"<Storage {'verify_email_onaccept': [], 'register...ame_next': '/IIIT_courier_portal/default/index'}>"
p161
sS'cas'
p162
S'<gluon.contrib.login_methods.cas_auth.CasAuth object>'
p163
sS'next'
p164
S"'/IIIT_courier_portal/default/user/login'"
p165
sS'client_side'
p166
g113
sS'global redirect'
p167
S'<function redirect>'
p168
ssg76
I2530
sg77
(dp169
I2528
S'                    # we need to pass through login again before going on'
p170
sI2529
S"                    next = self.url(settings.function, args='login')"
p171
sI2530
S'                    redirect(cas.login_url(next),'
p172
sI2531
S'                             client_side=settings.client_side)'
p173
sI2532
S''
sI2533
S'        # Extra login logic for two-factor authentication'
p174
sI2534
S'        #################################################'
p175
sI2525
S"                elif hasattr(cas, 'login_form'):"
p176
sI2526
S'                    return cas.login_form()'
p177
sI2527
S'                else:'
p178
ssg89
S"(self=<gluon.tools.Auth object>, next='/IIIT_courier_portal/default/user/login', onvalidation=[], onaccept=[], log='User %(id)s Logged-in')"
p179
sg91
S'login'
p180
sa(dp181
g68
S'/home/sanket/web2pydoc/web2py/gluon/contrib/login_methods/cas_auth.py'
p182
sg70
(dp183
S'global current'
p184
S'<thread._local object>'
p185
sS'current.session.token'
p186
S'None'
p187
sS'self'
p188
S'<gluon.contrib.login_methods.cas_auth.CasAuth object>'
p189
sS'self._CAS_login'
p190
S'<bound method CasAuth._CAS_login of <gluon.contrib.login_methods.cas_auth.CasAuth object>>'
p191
sS'current.session'
p192
S"<Storage {'_auth_next': '/IIIT_courier_portal/de...orage {'version': '37.0', 'name': 'Firefox'}>}>}>"
p193
ssg76
I66
sg77
(dp194
I64
S''
sI65
S'    def login_url(self, next="/"):'
p195
sI66
S'        current.session.token = self._CAS_login()'
p196
sI67
S'        return next'
p197
sI68
S''
sI69
S'    def logout_url(self, next="/"):'
p198
sI70
S'        current.session.token = None'
p199
sI61
S'        self.cas_my_url = URL(args=current.request.args,'
p200
sI62
S'                              #vars=current.request.vars,'
p201
sI63
S'                              scheme=True)'
p202
ssg89
S"(self=<gluon.contrib.login_methods.cas_auth.CasAuth object>, next='/IIIT_courier_portal/default/user/login')"
p203
sg91
S'login_url'
p204
sa(dp205
g68
S'/home/sanket/web2pydoc/web2py/gluon/contrib/login_methods/cas_auth.py'
p206
sg70
(dp207
S'url'
p208
S"'https://login.iiit.ac.in/cas/login/validata?serv...lt/login1&ticket=ST-6636-dgtfEbBz53awcObnbKRS-cas'"
p209
sS'urllib.urlopen'
p210
S'<function urlopen>'
p211
sS'data'
p212
g113
sS'urllib'
p213
S"<module 'urllib' from '/usr/lib/python2.7/urllib.pyc'>"
p214
sS').read'
p215
g113
ssg76
I98
sg77
(dp216
I96
S'                                               self.cas_my_url,'
p217
sI97
S'                                               self.ticket)'
p218
sI98
S'            data = urllib.urlopen(url).read()'
p219
sI99
S"            if data.startswith('yes') or data.startswith('no'):"
p220
sI100
S"                data = data.split('\\n')"
p221
sI101
S"                if data[0] == 'yes':"
p222
sI102
S"                    if ':' in data[1]:  # for Compatibility with Custom CAS"
p223
sI93
S'                                        self.cas_my_url))'
p224
sI94
S'        else:'
p225
sI95
S'            url = "%s?service=%s&ticket=%s" % (self.cas_check_url,'
p226
ssg89
S'(self=<gluon.contrib.login_methods.cas_auth.CasAuth object>)'
p227
sg91
S'_CAS_login'
p228
sa(dp229
g68
S'/usr/lib/python2.7/urllib.py'
p230
sg70
(dp231
S'url'
p232
S"'https://login.iiit.ac.in/cas/login/validata?serv...lt/login1&ticket=ST-6636-dgtfEbBz53awcObnbKRS-cas'"
p233
sS'opener'
p234
S'<gluon.contrib.autolinks.VimeoURLOpener instance>'
p235
sS'opener.open'
p236
S'<bound method VimeoURLOpener.open of <gluon.contrib.autolinks.VimeoURLOpener instance>>'
p237
ssg76
I87
sg77
(dp238
I82
S'        opener = FancyURLopener()'
p239
sI83
S'        _urlopener = opener'
p240
sI84
S'    else:'
p241
sI85
S'        opener = _urlopener'
p242
sI86
S'    if data is None:'
p243
sI87
S'        return opener.open(url)'
p244
sI88
S'    else:'
p245
sI89
S'        return opener.open(url, data)'
p246
sI90
S'def urlretrieve(url, filename=None, reporthook=None, data=None):'
p247
sI91
S'    global _urlopener'
p248
ssg89
S"(url='https://login.iiit.ac.in/cas/login/validata?serv...lt/login1&ticket=ST-6636-dgtfEbBz53awcObnbKRS-cas', data=None, proxies=None)"
p249
sg91
S'urlopen'
p250
sa(dp251
g68
S'/usr/lib/python2.7/urllib.py'
p252
sg70
(dp253
S'url'
p254
S"('proxy.iiit.ac.in:8080', 'https://login.iiit.ac.in/cas/login/validata?serv...lt/login1&ticket=ST-6636-dgtfEbBz53awcObnbKRS-cas')"
p255
sS'self'
p256
S'<gluon.contrib.autolinks.VimeoURLOpener instance>'
p257
sS'builtingetattr'
p258
S'<built-in function getattr>'
p259
sS'name'
p260
S"'open_https'"
p261
ssg76
I208
sg77
(dp262
I203
S'                return self.open_unknown_proxy(proxy, fullurl, data)'
p263
sI204
S'            else:'
p264
sI205
S'                return self.open_unknown(fullurl, data)'
p265
sI206
S'        try:'
p266
sI207
S'            if data is None:'
p267
sI208
S'                return getattr(self, name)(url)'
p268
sI209
S'            else:'
p269
sI210
S'                return getattr(self, name)(url, data)'
p270
sI211
S'        except socket.error, msg:'
p271
sI212
S"            raise IOError, ('socket error', msg), sys.exc_info()[2]"
p272
ssg89
S"(self=<gluon.contrib.autolinks.VimeoURLOpener instance>, fullurl='https://login.iiit.ac.in/cas/login/validata?serv...lt/login1&ticket=ST-6636-dgtfEbBz53awcObnbKRS-cas', data=None)"
p273
sg91
S'open'
p274
sa(dp275
g68
S'/usr/lib/python2.7/urllib.py'
p276
sg70
(dp277
S'h'
S'<httplib.HTTPS instance>'
p278
sS'data'
p279
S'None'
p280
sS'h.endheaders'
p281
S'<bound method HTTPSConnection.endheaders of <httplib.HTTPSConnection instance>>'
p282
ssg76
I437
sg77
(dp283
I432
S"                h.putrequest('GET', selector)"
p284
sI433
S"            if proxy_auth: h.putheader('Proxy-Authorization', 'Basic %s' % proxy_auth)"
p285
sI434
S"            if auth: h.putheader('Authorization', 'Basic %s' % auth)"
p286
sI435
S"            if realhost: h.putheader('Host', realhost)"
p287
sI436
S'            for args in self.addheaders: h.putheader(*args)'
p288
sI437
S'            h.endheaders(data)'
p289
sI438
S'            errcode, errmsg, headers = h.getreply()'
p290
sI439
S'            fp = h.getfile()'
p291
sI440
S'            if errcode == -1:'
p292
sI441
S'                if fp: fp.close()'
p293
ssg89
S"(self=<gluon.contrib.autolinks.VimeoURLOpener instance>, url='//login.iiit.ac.in/cas/login/validata?service=ht...lt/login1&ticket=ST-6636-dgtfEbBz53awcObnbKRS-cas', data=None)"
p294
sg91
S'open_https'
p295
sa(dp296
g68
S'/usr/lib/python2.7/httplib.py'
p297
sg70
(dp298
S'message_body'
p299
S'None'
p300
sS'self'
p301
S'<httplib.HTTPSConnection instance>'
p302
sS'self._send_output'
p303
S'<bound method HTTPSConnection._send_output of <httplib.HTTPSConnection instance>>'
p304
ssg76
I969
sg77
(dp305
I964
S'        """'
p306
sI965
S'        if self.__state == _CS_REQ_STARTED:'
p307
sI966
S'            self.__state = _CS_REQ_SENT'
p308
sI967
S'        else:'
p309
sI968
S'            raise CannotSendHeader()'
p310
sI969
S'        self._send_output(message_body)'
p311
sI970
S''
sI971
S'    def request(self, method, url, body=None, headers={}):'
p312
sI972
S'        """Send a complete request to the server."""'
p313
sI973
S'        self._send_request(method, url, body, headers)'
p314
ssg89
S'(self=<httplib.HTTPSConnection instance>, message_body=None)'
p315
sg91
S'endheaders'
p316
sa(dp317
g68
S'/usr/lib/python2.7/httplib.py'
p318
sg70
(dp319
S'msg'
p320
S"'GET https://login.iiit.ac.in/cas/login/validata?...st: login.iiit.ac.in\\r\\nUser-Agent: Mozilla/4.0\\r\\n\\r\\n'"
p321
sS'self'
p322
S'<httplib.HTTPSConnection instance>'
p323
sS'self.send'
p324
S'<bound method HTTPSConnection.send of <httplib.HTTPSConnection instance>>'
p325
ssg76
I829
sg77
(dp326
I832
S'            #we must run the risk of Nagle'
p327
sI833
S'            self.send(message_body)'
p328
sI824
S'        # it will avoid performance problems caused by the interaction'
p329
sI825
S'        # between delayed ack and the Nagle algorithm.'
p330
sI826
S'        if isinstance(message_body, str):'
p331
sI827
S'            msg += message_body'
p332
sI828
S'            message_body = None'
p333
sI829
S'        self.send(msg)'
p334
sI830
S'        if message_body is not None:'
p335
sI831
S'            #message_body was not a string (i.e. it is a file) and'
p336
ssg89
S'(self=<httplib.HTTPSConnection instance>, message_body=None)'
p337
sg91
S'_send_output'
p338
sa(dp339
g68
S'/usr/lib/python2.7/httplib.py'
p340
sg70
(dp341
S'self'
p342
S'<httplib.HTTPSConnection instance>'
p343
sS'self.connect'
p344
S'<bound method HTTPSConnection.connect of <httplib.HTTPSConnection instance>>'
p345
ssg76
I791
sg77
(dp346
I786
S''
sI787
S'    def send(self, data):'
p347
sI788
S'        """Send `data\' to the server."""'
p348
sI789
S'        if self.sock is None:'
p349
sI790
S'            if self.auto_open:'
p350
sI791
S'                self.connect()'
p351
sI792
S'            else:'
p352
sI793
S'                raise NotConnected()'
p353
sI794
S''
sI795
S'        if self.debuglevel > 0:'
p354
ssg89
S"(self=<httplib.HTTPSConnection instance>, data='GET https://login.iiit.ac.in/cas/login/validata?...st: login.iiit.ac.in\\r\\nUser-Agent: Mozilla/4.0\\r\\n\\r\\n')"
p355
sg91
S'send'
p356
sa(dp357
g68
S'/usr/lib/python2.7/httplib.py'
p358
sg70
(dp359
S'global ssl'
p360
S"<module 'ssl' from '/usr/lib/python2.7/ssl.pyc'>"
p361
sS'self'
p362
S'<httplib.HTTPSConnection instance>'
p363
sS'sock'
p364
S'<socket._socketobject object>'
p365
sS'self.cert_file'
p366
S'None'
p367
sS'self.key_file'
p368
S'None'
p369
sS'ssl.wrap_socket'
p370
S'<function wrap_socket>'
p371
sS'self.sock'
p372
S'None'
p373
ssg76
I1176
sg77
(dp374
I1171
S'            sock = socket.create_connection((self.host, self.port),'
p375
sI1172
S'                                            self.timeout, self.source_address)'
p376
sI1173
S'            if self._tunnel_host:'
p377
sI1174
S'                self.sock = sock'
p378
sI1175
S'                self._tunnel()'
p379
sI1176
S'            self.sock = ssl.wrap_socket(sock, self.key_file, self.cert_file)'
p380
sI1177
S''
sI1178
S'    __all__.append("HTTPSConnection")'
p381
sI1179
S''
sI1180
S'    class HTTPS(HTTP):'
p382
ssg89
S'(self=<httplib.HTTPSConnection instance>)'
p383
sg91
S'connect'
p384
sa(dp385
g68
S'/usr/lib/python2.7/ssl.py'
p386
sg70
(dp387
S'ciphers'
p388
S'None'
p389
ssg76
I487
sg77
(dp390
I482
S'    return SSLSocket(sock, keyfile=keyfile, certfile=certfile,'
p391
sI483
S'                     server_side=server_side, cert_reqs=cert_reqs,'
p392
sI484
S'                     ssl_version=ssl_version, ca_certs=ca_certs,'
p393
sI485
S'                     do_handshake_on_connect=do_handshake_on_connect,'
p394
sI486
S'                     suppress_ragged_eofs=suppress_ragged_eofs,'
p395
sI487
S'                     ciphers=ciphers)'
p396
sI488
S''
sI489
S''
sI490
S'# some utility functions'
p397
sI491
S''
ssg89
S'(sock=<socket._socketobject object>, keyfile=None, certfile=None, server_side=False, cert_reqs=0, ssl_version=2, ca_certs=None, do_handshake_on_connect=True, suppress_ragged_eofs=True, ciphers=None)'
p398
sg91
S'wrap_socket'
p399
sa(dp400
g68
S'/usr/lib/python2.7/ssl.py'
p401
sg70
(dp402
S'self'
p403
S'<ssl.SSLSocket object>'
p404
sS'self.do_handshake'
p405
S'<bound method SSLSocket.do_handshake of <ssl.SSLSocket object>>'
p406
ssg76
I243
sg77
(dp407
I238
S'            self._sslobj = _ssl.sslwrap(self._sock, server_side,'
p408
sI239
S'                                        keyfile, certfile,'
p409
sI240
S'                                        cert_reqs, ssl_version, ca_certs,'
p410
sI241
S'                                        ciphers)'
p411
sI242
S'            if do_handshake_on_connect:'
p412
sI243
S'                self.do_handshake()'
p413
sI244
S'        self.keyfile = keyfile'
p414
sI245
S'        self.certfile = certfile'
p415
sI246
S'        self.cert_reqs = cert_reqs'
p416
sI247
S'        self.ssl_version = ssl_version'
p417
ssg89
S"(self=<ssl.SSLSocket object>, sock=<socket._socketobject object>, keyfile=None, certfile=None, server_side=False, cert_reqs=0, ssl_version=2, ca_certs=None, do_handshake_on_connect=True, suppress_ragged_eofs=True, ciphers='DEFAULT:!aNULL:!eNULL:!LOW:!EXPORT:!SSLv2')"
p418
sg91
g22
sa(dp419
g68
S'/usr/lib/python2.7/ssl.py'
p420
sg70
(dp421
S'self._sslobj.do_handshake'
p422
S'<built-in method do_handshake of ssl.SSLContext object>'
p423
sS'self'
p424
S'<ssl.SSLSocket object>'
p425
sS'self._sslobj'
p426
S'<ssl.SSLContext object>'
p427
ssg76
I405
sg77
(dp428
I400
S''
sI401
S'    def do_handshake(self):'
p429
sI402
S''
sI403
S'        """Perform a TLS/SSL handshake."""'
p430
sI404
S''
sI405
S'        self._sslobj.do_handshake()'
p431
sI406
S''
sI407
S'    def _real_connect(self, addr, return_errno):'
p432
sI408
S'        # Here we assume that the socket is client-side, and not'
p433
sI409
S'        # connected at the time of the call.  We connect it, then wrap it.'
p434
ssg89
S'(self=<ssl.SSLSocket object>)'
p435
sg91
S'do_handshake'
p436
sasS'pyver'
p437
S'Python 2.7.6: /usr/bin/python (prefix: /usr)'
p438
sS'session'
p439
g63
(S's\x98\x00\x00\x00<div><table><tr><td style="font-weight:bold;vertical-align:top;">flash</td><td style="vertical-align:top;">:</td><td><div></div></td></tr></table></div>'
tRp440
sS'etype'
p441
S"<type 'exceptions.IOError'>"
p442
sS'date'
p443
S'Thu Apr 30 21:48:54 2015'
p444
sS'response'
p445
g63
(S'sD\x1e\x00\x00<div><table><tr><td style="font-weight:bold;vertical-align:top;">body</td><td style="vertical-align:top;">:</td><td><div>&lt;cStringIO.StringO object at 0x7fbb8adb5298&gt;</div></td></tr><tr><td style="font-weight:bold;vertical-align:top;">cookies</td><td style="vertical-align:top;">:</td><td><div><table><tr><td style="font-weight:bold;vertical-align:top;">session_id_iiit_courier_portal</td><td style="vertical-align:top;">:</td><td><div>127.0.0.1-3e5e3aa6-3416-4a7e-a80d-a37ebf8e91d4<table><tr><td style="font-weight:bold;vertical-align:top;">comment</td><td style="vertical-align:top;">:</td><td><div></div></td></tr><tr><td style="font-weight:bold;vertical-align:top;">domain</td><td style="vertical-align:top;">:</td><td><div></div></td></tr><tr><td style="font-weight:bold;vertical-align:top;">expires</td><td style="vertical-align:top;">:</td><td><div></div></td></tr><tr><td style="font-weight:bold;vertical-align:top;">httponly</td><td style="vertical-align:top;">:</td><td><div></div></td></tr><tr><td style="font-weight:bold;vertical-align:top;">max-age</td><td style="vertical-align:top;">:</td><td><div></div></td></tr><tr><td style="font-weight:bold;vertical-align:top;">path</td><td style="vertical-align:top;">:</td><td><div>/</div></td></tr><tr><td style="font-weight:bold;vertical-align:top;">secure</td><td style="vertical-align:top;">:</td><td><div></div></td></tr><tr><td style="font-weight:bold;vertical-align:top;">version</td><td style="vertical-align:top;">:</td><td><div></div></td></tr></table></div></td></tr></table></div></td></tr><tr><td style="font-weight:bold;vertical-align:top;">delimiters</td><td style="vertical-align:top;">:</td><td><div><table><tr><td><div>{{</div></td></tr><tr><td><div>}}</div></td></tr></table></div></td></tr><tr><td style="font-weight:bold;vertical-align:top;">files</td><td style="vertical-align:top;">:</td><td><div><table></table></div></td></tr><tr><td style="font-weight:bold;vertical-align:top;">flash</td><td style="vertical-align:top;">:</td><td><div></div></td></tr><tr><td style="font-weight:bold;vertical-align:top;">form_label_separator</td><td style="vertical-align:top;">:</td><td><div>: </div></td></tr><tr><td style="font-weight:bold;vertical-align:top;">formstyle</td><td style="vertical-align:top;">:</td><td><div>table3cols</div></td></tr><tr><td style="font-weight:bold;vertical-align:top;">generic_patterns</td><td style="vertical-align:top;">:</td><td><div><table><tr><td><div>*</div></td></tr></table></div></td></tr><tr><td style="font-weight:bold;vertical-align:top;">google_analytics_id</td><td style="vertical-align:top;">:</td><td><div>None</div></td></tr><tr><td style="font-weight:bold;vertical-align:top;">headers</td><td style="vertical-align:top;">:</td><td><div><table><tr><td style="font-weight:bold;vertical-align:top;">X-Powered-By</td><td style="vertical-align:top;">:</td><td><div>web2py</div></td></tr></table></div></td></tr><tr><td style="font-weight:bold;vertical-align:top;">logo</td><td style="vertical-align:top;">:</td><td><div><a class="brand" href="http://www.web2py.com/"><b>IIIT Courier</b>&nbsp;</a></div></td></tr><tr><td style="font-weight:bold;vertical-align:top;">menu</td><td style="vertical-align:top;">:</td><td><div><table><tr><td><div><table><tr><td><div>List</div></td></tr><tr><td><div>False</div></td></tr><tr><td><div>/IIIT_courier_portal/default/manage</div></td></tr><tr><td><div><table></table></div></td></tr></table></div></td></tr><tr><td><div><table><tr><td><div>Insert</div></td></tr><tr><td><div>False</div></td></tr><tr><td><div>/IIIT_courier_portal/default/new_courier</div></td></tr><tr><td><div><table></table></div></td></tr></table></div></td></tr></table></div></td></tr><tr><td style="font-weight:bold;vertical-align:top;">meta</td><td style="vertical-align:top;">:</td><td><div><table><tr><td style="font-weight:bold;vertical-align:top;">author</td><td style="vertical-align:top;">:</td><td><div>Your Name &lt;you@example.com&gt;</div></td></tr><tr><td style="font-weight:bold;vertical-align:top;">generator</td><td style="vertical-align:top;">:</td><td><div>Web2py Web Framework</div></td></tr><tr><td style="font-weight:bold;vertical-align:top;">keywords</td><td style="vertical-align:top;">:</td><td><div>web2py, python, framework</div></td></tr></table></div></td></tr><tr><td style="font-weight:bold;vertical-align:top;">models_to_run</td><td style="vertical-align:top;">:</td><td><div><table><tr><td><div>^\\w+\\.py$</div></td></tr><tr><td><div>^default/\\w+\\.py$</div></td></tr><tr><td><div>^default/login1/\\w+\\.py$</div></td></tr></table></div></td></tr><tr><td style="font-weight:bold;vertical-align:top;">postprocessing</td><td style="vertical-align:top;">:</td><td><div><table></table></div></td></tr><tr><td style="font-weight:bold;vertical-align:top;">session_client</td><td style="vertical-align:top;">:</td><td><div>127.0.0.1</div></td></tr><tr><td style="font-weight:bold;vertical-align:top;">session_cookie_compression_level</td><td style="vertical-align:top;">:</td><td><div>None</div></td></tr><tr><td style="font-weight:bold;vertical-align:top;">session_cookie_expires</td><td style="vertical-align:top;">:</td><td><div>None</div></td></tr><tr><td style="font-weight:bold;vertical-align:top;">session_cookie_key</td><td style="vertical-align:top;">:</td><td><div>None</div></td></tr><tr><td style="font-weight:bold;vertical-align:top;">session_data_name</td><td style="vertical-align:top;">:</td><td><div>session_data_iiit_courier_portal</div></td></tr><tr><td style="font-weight:bold;vertical-align:top;">session_file</td><td style="vertical-align:top;">:</td><td><div>&lt;open file &#x27;/home/sanket/web2pydoc/web2py/applications/IIIT_courier_portal/sessions/124/0f4/127.0.0.1-3e5e3aa6-3416-4a7e-a80d-a37ebf8e91d4&#x27;, mode &#x27;rb+&#x27; at 0x7fbb8b411db0&gt;</div></td></tr><tr><td style="font-weight:bold;vertical-align:top;">session_filename</td><td style="vertical-align:top;">:</td><td><div>/home/sanket/web2pydoc/web2py/applications/IIIT_courier_portal/sessions/127.0.0.1-3e5e3aa6-3416-4a7e-a80d-a37ebf8e91d4</div></td></tr><tr><td style="font-weight:bold;vertical-align:top;">session_hash</td><td style="vertical-align:top;">:</td><td><div>1063fdf6b2310ca43d8cfad52b25c34a</div></td></tr><tr><td style="font-weight:bold;vertical-align:top;">session_id</td><td style="vertical-align:top;">:</td><td><div>127.0.0.1-3e5e3aa6-3416-4a7e-a80d-a37ebf8e91d4</div></td></tr><tr><td style="font-weight:bold;vertical-align:top;">session_id_name</td><td style="vertical-align:top;">:</td><td><div>session_id_iiit_courier_portal</div></td></tr><tr><td style="font-weight:bold;vertical-align:top;">session_locked</td><td style="vertical-align:top;">:</td><td><div>True</div></td></tr><tr><td style="font-weight:bold;vertical-align:top;">session_masterapp</td><td style="vertical-align:top;">:</td><td><div>IIIT_courier_portal</div></td></tr><tr><td style="font-weight:bold;vertical-align:top;">session_new</td><td style="vertical-align:top;">:</td><td><div>False</div></td></tr><tr><td style="font-weight:bold;vertical-align:top;">session_storage_type</td><td style="vertical-align:top;">:</td><td><div>file</div></td></tr><tr><td style="font-weight:bold;vertical-align:top;">status</td><td style="vertical-align:top;">:</td><td><div>200</div></td></tr><tr><td style="font-weight:bold;vertical-align:top;">subtitle</td><td style="vertical-align:top;">:</td><td><div></div></td></tr><tr><td style="font-weight:bold;vertical-align:top;">title</td><td style="vertical-align:top;">:</td><td><div>Iiit Courier Portal</div></td></tr><tr><td style="font-weight:bold;vertical-align:top;">view</td><td style="vertical-align:top;">:</td><td><div>default/login1.html</div></td></tr></table></div>'
tRp446
sS'locals'
p447
(dp448
S'self'
p449
S'<ssl.SSLSocket object>'
p450
sssS'traceback'
p451
S'Traceback (most recent call last):\n  File "/home/sanket/web2pydoc/web2py/gluon/restricted.py", line 224, in restricted\n    exec ccode in environment\n  File "/home/sanket/web2pydoc/web2py/applications/IIIT_courier_portal/controllers/default.py", line 124, in <module>\n  File "/home/sanket/web2pydoc/web2py/gluon/globals.py", line 393, in <lambda>\n    self._caller = lambda f: f()\n  File "/home/sanket/web2pydoc/web2py/applications/IIIT_courier_portal/controllers/default.py", line 26, in login1\n    return auth1.login(next=URL(r=request,c=\'default\',f=\'manage\'))\n  File "/home/sanket/web2pydoc/web2py/gluon/tools.py", line 2530, in login\n    redirect(cas.login_url(next),\n  File "/home/sanket/web2pydoc/web2py/gluon/contrib/login_methods/cas_auth.py", line 66, in login_url\n    current.session.token = self._CAS_login()\n  File "/home/sanket/web2pydoc/web2py/gluon/contrib/login_methods/cas_auth.py", line 98, in _CAS_login\n    data = urllib.urlopen(url).read()\n  File "/usr/lib/python2.7/urllib.py", line 87, in urlopen\n    return opener.open(url)\n  File "/usr/lib/python2.7/urllib.py", line 208, in open\n    return getattr(self, name)(url)\n  File "/usr/lib/python2.7/urllib.py", line 437, in open_https\n    h.endheaders(data)\n  File "/usr/lib/python2.7/httplib.py", line 969, in endheaders\n    self._send_output(message_body)\n  File "/usr/lib/python2.7/httplib.py", line 829, in _send_output\n    self.send(msg)\n  File "/usr/lib/python2.7/httplib.py", line 791, in send\n    self.connect()\n  File "/usr/lib/python2.7/httplib.py", line 1176, in connect\n    self.sock = ssl.wrap_socket(sock, self.key_file, self.cert_file)\n  File "/usr/lib/python2.7/ssl.py", line 487, in wrap_socket\n    ciphers=ciphers)\n  File "/usr/lib/python2.7/ssl.py", line 243, in __init__\n    self.do_handshake()\n  File "/usr/lib/python2.7/ssl.py", line 405, in do_handshake\n    self._sslobj.do_handshake()\nIOError: [Errno socket error] [Errno 1] _ssl.c:510: error:140770FC:SSL routines:SSL23_GET_SERVER_HELLO:unknown protocol\n'
p452
s.